target datalayout = "e-m:e-p270:32:32-p271:32:32-p272:64:64-i64:64-i128:128-f80:128-n8:16:32:64-S128"
target triple = "x86_64-pc-linux-gnu"

%struct.quicklistEntry = type { ptr, ptr, ptr, ptr, i64, i64, i32 }

; Function Attrs: nounwind uwtable
define dso_local i32 @quicklistCompare(ptr noundef %0, ptr noundef %1, i64 noundef %2) #0 {
  %4 = alloca i32, align 4
  %5 = alloca ptr, align 8
  %6 = alloca ptr, align 8
  %7 = alloca i64, align 8
  %8 = alloca i64, align 8
  %9 = alloca i32, align 4
  store ptr %0, ptr %5, align 8, !tbaa !44
  store ptr %1, ptr %6, align 8, !tbaa !35
  store i64 %2, ptr %7, align 8, !tbaa !5
  %10 = load ptr, ptr %5, align 8, !tbaa !44
  %11 = getelementptr inbounds nuw %struct.quicklistEntry, ptr %10, i32 0, i32 3
  %12 = load ptr, ptr %11, align 8, !tbaa !61
  %13 = icmp ne ptr %12, null
  br i1 %13, label %14, label %31

14:                                               ; preds = %3
  %15 = load ptr, ptr %5, align 8, !tbaa !44
  %16 = getelementptr inbounds nuw %struct.quicklistEntry, ptr %15, i32 0, i32 5
  %17 = load i64, ptr %16, align 8, !tbaa !62
  %18 = load i64, ptr %7, align 8, !tbaa !5
  %19 = icmp eq i64 %17, %18
  br i1 %19, label %20, label %28

20:                                               ; preds = %14
  %21 = load ptr, ptr %5, align 8, !tbaa !44
  %22 = getelementptr inbounds nuw %struct.quicklistEntry, ptr %21, i32 0, i32 3
  %23 = load ptr, ptr %22, align 8, !tbaa !61
  %24 = load ptr, ptr %6, align 8, !tbaa !35
  %25 = load i64, ptr %7, align 8, !tbaa !5
  %26 = call i32 @memcmp(ptr noundef %23, ptr noundef %24, i64 noundef %25) #14
  %27 = icmp eq i32 %26, 0
  br label %28

28:                                               ; preds = %20, %14
  %29 = phi i1 [ false, %14 ], [ %27, %20 ]
  %30 = zext i1 %29 to i32
  store i32 %30, ptr %4, align 4
  br label %48

31:                                               ; preds = %3
  call void @llvm.lifetime.start.p0(i64 8, ptr %8) #10
  %32 = load ptr, ptr %6, align 8, !tbaa !35
  %33 = load i64, ptr %7, align 8, !tbaa !5
  %34 = call i32 @string2ll(ptr noundef %32, i64 noundef %33, ptr noundef %8)
  %35 = icmp ne i32 %34, 0
  br i1 %35, label %36, label %43

36:                                               ; preds = %31
  %37 = load ptr, ptr %5, align 8, !tbaa !44
  %38 = getelementptr inbounds nuw %struct.quicklistEntry, ptr %37, i32 0, i32 4
  %39 = load i64, ptr %38, align 8, !tbaa !63
  %40 = load i64, ptr %8, align 8, !tbaa !57
  %41 = icmp eq i64 %39, %40
  %42 = zext i1 %41 to i32
  store i32 %42, ptr %4, align 4
  store i32 1, ptr %9, align 4
  br label %44

43:                                               ; preds = %31
  store i32 0, ptr %9, align 4
  br label %44

44:                                               ; preds = %43, %36
  call void @llvm.lifetime.end.p0(i64 8, ptr %8) #10
  %45 = load i32, ptr %9, align 4
  switch i32 %45, label %50 [
    i32 0, label %46
    i32 1, label %48
  ]

46:                                               ; preds = %44
  br label %47

47:                                               ; preds = %46
  store i32 0, ptr %4, align 4
  br label %48

48:                                               ; preds = %47, %44, %28
  %49 = load i32, ptr %4, align 4
  ret i32 %49

50:                                               ; preds = %44
  unreachable
}