; Function Attrs: nounwind uwtable
define dso_local range(i32 0, 2) i32 @quicklistCompare(ptr noundef readonly captures(none) %0, ptr noundef %1, i64 noundef %2) local_unnamed_addr #1 {
  %4 = alloca i64, align 8
  %5 = getelementptr inbounds nuw i8, ptr %0, i64 24
  %6 = load ptr, ptr %5, align 8, !tbaa !50
  %.not = icmp eq ptr %6, null
  br i1 %.not, label %14, label %7

7:                                                ; preds = %3
  %8 = getelementptr inbounds nuw i8, ptr %0, i64 40
  %9 = load i64, ptr %8, align 8, !tbaa !51
  %10 = icmp eq i64 %9, %2
  br i1 %10, label %11, label %23

11:                                               ; preds = %7
  %bcmp = tail call i32 @bcmp(ptr nonnull %6, ptr %1, i64 %2)
  %12 = icmp eq i32 %bcmp, 0
  %13 = zext i1 %12 to i32
  br label %23

14:                                               ; preds = %3
  call void @llvm.lifetime.start.p0(i64 8, ptr nonnull %4) #23
  %15 = call i32 @string2ll(ptr noundef %1, i64 noundef %2, ptr noundef nonnull %4) #23
  %.not13.not = icmp eq i32 %15, 0
  br i1 %.not13.not, label %22, label %16

16:                                               ; preds = %14
  %17 = getelementptr inbounds nuw i8, ptr %0, i64 32
  %18 = load i64, ptr %17, align 8, !tbaa !52
  %19 = load i64, ptr %4, align 8, !tbaa !53
  %20 = icmp eq i64 %18, %19
  %21 = zext i1 %20 to i32
  br label %22

22:                                               ; preds = %14, %16
  %spec.select = phi i32 [ %21, %16 ], [ 0, %14 ]
  call void @llvm.lifetime.end.p0(i64 8, ptr nonnull %4) #23
  br label %23

23:                                               ; preds = %22, %7, %11
  %.010 = phi i32 [ 0, %7 ], [ %13, %11 ], [ %spec.select, %22 ]
  ret i32 %.010
}